; Function Attrs: mustprogress uwtable
define internal void @"_ZNSt17_Function_handlerIFNSt7__cxx1112basic_stringIcSt11char_traitsIcESaIcEEERKS5_EZN6cmList9transformENS9_15TransformActionES7_S7_St10unique_ptrINS9_17TransformSelectorESt14default_deleteISC_EEE3$_0E9_M_invokeERKSt9_Any_dataS7_"(ptr dead_on_unwind noalias writable sret(%"class.std::__cxx11::basic_string") align 8 %0, ptr nocapture noundef nonnull readonly align 8 dereferenceable(16) %1, ptr noundef nonnull align 8 dereferenceable(32) %2) #3 align 2 {
  %.val = load ptr, ptr %1, align 8
  %.val.val = load ptr, ptr %.val, align 8
  %4 = getelementptr i8, ptr %.val.val, i64 80
  %.val.val.val = load ptr, ptr %4, align 8
  %5 = load ptr, ptr %.val.val.val, align 8, !noalias !349
  %6 = getelementptr inbounds i8, ptr %5, i64 40
  %7 = load ptr, ptr %6, align 8, !noalias !349
  tail call void %7(ptr dead_on_unwind writable sret(%"class.std::__cxx11::basic_string") align 8 %0, ptr noundef nonnull align 8 dereferenceable(16) %.val.val.val, ptr noundef nonnull align 8 dereferenceable(32) %2)
  ret void
}